target datalayout = "e-m:e-p270:32:32-p271:32:32-p272:64:64-i64:64-i128:128-f80:128-n8:16:32:64-S128"
target triple = "x86_64-pc-linux-gnu"

%struct.AVTXContext = type { i32, i32, ptr, ptr, ptr, ptr, [4 x ptr], i32, [4 x ptr], ptr, i32, i64, i32, float, double, ptr }

; Function Attrs: nounwind uwtable
define internal void @ff_tx_mdct_naive_fwd_float_c(ptr noundef %0, ptr noundef %1, ptr noundef %2, i64 noundef %3) #4 {
  %5 = alloca ptr, align 8
  %6 = alloca ptr, align 8
  %7 = alloca ptr, align 8
  %8 = alloca i64, align 8
  %9 = alloca ptr, align 8
  %10 = alloca ptr, align 8
  %11 = alloca double, align 8
  %12 = alloca i32, align 4
  %13 = alloca double, align 8
  %14 = alloca i32, align 4
  %15 = alloca i32, align 4
  %16 = alloca double, align 8
  %17 = alloca i32, align 4
  %18 = alloca i32, align 4
  store ptr %0, ptr %5, align 8, !tbaa !17
  store ptr %1, ptr %6, align 8, !tbaa !8
  store ptr %2, ptr %7, align 8, !tbaa !8
  store i64 %3, ptr %8, align 8, !tbaa !30
  call void @llvm.lifetime.start.p0(i64 8, ptr %9) #10
  %19 = load ptr, ptr %7, align 8, !tbaa !8
  store ptr %19, ptr %9, align 8, !tbaa !39
  call void @llvm.lifetime.start.p0(i64 8, ptr %10) #10
  %20 = load ptr, ptr %6, align 8, !tbaa !8
  store ptr %20, ptr %10, align 8, !tbaa !39
  call void @llvm.lifetime.start.p0(i64 8, ptr %11) #10
  %21 = load ptr, ptr %5, align 8, !tbaa !17
  %22 = getelementptr inbounds nuw %struct.AVTXContext, ptr %21, i32 0, i32 14
  %23 = load double, ptr %22, align 8, !tbaa !28
  store double %23, ptr %11, align 8, !tbaa !29
  call void @llvm.lifetime.start.p0(i64 4, ptr %12) #10
  %24 = load ptr, ptr %5, align 8, !tbaa !17
  %25 = getelementptr inbounds nuw %struct.AVTXContext, ptr %24, i32 0, i32 0
  %26 = load i32, ptr %25, align 8, !tbaa !21
  store i32 %26, ptr %12, align 4, !tbaa !4
  call void @llvm.lifetime.start.p0(i64 8, ptr %13) #10
  %27 = load i32, ptr %12, align 4, !tbaa !4
  %28 = sitofp i32 %27 to double
  %29 = fmul nsz double 4.000000e+00, %28
  %30 = fdiv nsz double 0x400921FB54442D18, %29
  store double %30, ptr %13, align 8, !tbaa !29
  %31 = load i64, ptr %8, align 8, !tbaa !30
  %32 = udiv i64 %31, 4
  store i64 %32, ptr %8, align 8, !tbaa !30
  call void @llvm.lifetime.start.p0(i64 4, ptr %14) #10
  store i32 0, ptr %14, align 4, !tbaa !4
  br label %33

33:                                               ; preds = %82, %4
  %34 = load i32, ptr %14, align 4, !tbaa !4
  %35 = load i32, ptr %12, align 4, !tbaa !4
  %36 = icmp slt i32 %34, %35
  br i1 %36, label %38, label %37

37:                                               ; preds = %33
  store i32 2, ptr %15, align 4
  call void @llvm.lifetime.end.p0(i64 4, ptr %14) #10
  br label %85

38:                                               ; preds = %33
  call void @llvm.lifetime.start.p0(i64 8, ptr %16) #10
  store double 0.000000e+00, ptr %16, align 8, !tbaa !29
  call void @llvm.lifetime.start.p0(i64 4, ptr %17) #10
  store i32 0, ptr %17, align 4, !tbaa !4
  br label %39

39:                                               ; preds = %68, %38
  %40 = load i32, ptr %17, align 4, !tbaa !4
  %41 = load i32, ptr %12, align 4, !tbaa !4
  %42 = mul nsw i32 %41, 2
  %43 = icmp slt i32 %40, %42
  br i1 %43, label %45, label %44

44:                                               ; preds = %39
  store i32 5, ptr %15, align 4
  call void @llvm.lifetime.end.p0(i64 4, ptr %17) #10
  br label %71

45:                                               ; preds = %39
  call void @llvm.lifetime.start.p0(i64 4, ptr %18) #10
  %46 = load i32, ptr %17, align 4, !tbaa !4
  %47 = mul nsw i32 2, %46
  %48 = add nsw i32 %47, 1
  %49 = load i32, ptr %12, align 4, !tbaa !4
  %50 = add nsw i32 %48, %49
  %51 = load i32, ptr %14, align 4, !tbaa !4
  %52 = mul nsw i32 2, %51
  %53 = add nsw i32 %52, 1
  %54 = mul nsw i32 %50, %53
  store i32 %54, ptr %18, align 4, !tbaa !4
  %55 = load ptr, ptr %9, align 8, !tbaa !39
  %56 = load i32, ptr %17, align 4, !tbaa !4
  %57 = sext i32 %56 to i64
  %58 = getelementptr inbounds float, ptr %55, i64 %57
  %59 = load float, ptr %58, align 4, !tbaa !36
  %60 = fpext nsz float %59 to double
  %61 = load i32, ptr %18, align 4, !tbaa !4
  %62 = sitofp i32 %61 to double
  %63 = load double, ptr %13, align 8, !tbaa !29
  %64 = fmul nsz double %62, %63
  %65 = call nsz double @llvm.cos.f64(double %64)
  %66 = load double, ptr %16, align 8, !tbaa !29
  %67 = call nsz double @llvm.fmuladd.f64(double %60, double %65, double %66)
  store double %67, ptr %16, align 8, !tbaa !29
  call void @llvm.lifetime.end.p0(i64 4, ptr %18) #10
  br label %68

68:                                               ; preds = %45
  %69 = load i32, ptr %17, align 4, !tbaa !4
  %70 = add nsw i32 %69, 1
  store i32 %70, ptr %17, align 4, !tbaa !4
  br label %39, !llvm.loop !143

71:                                               ; preds = %44
  %72 = load double, ptr %16, align 8, !tbaa !29
  %73 = load double, ptr %11, align 8, !tbaa !29
  %74 = fmul nsz double %72, %73
  %75 = fptrunc nsz double %74 to float
  %76 = load ptr, ptr %10, align 8, !tbaa !39
  %77 = load i32, ptr %14, align 4, !tbaa !4
  %78 = sext i32 %77 to i64
  %79 = load i64, ptr %8, align 8, !tbaa !30
  %80 = mul nsw i64 %78, %79
  %81 = getelementptr inbounds float, ptr %76, i64 %80
  store float %75, ptr %81, align 4, !tbaa !36
  call void @llvm.lifetime.end.p0(i64 8, ptr %16) #10
  br label %82

82:                                               ; preds = %71
  %83 = load i32, ptr %14, align 4, !tbaa !4
  %84 = add nsw i32 %83, 1
  store i32 %84, ptr %14, align 4, !tbaa !4
  br label %33, !llvm.loop !144

85:                                               ; preds = %37
  call void @llvm.lifetime.end.p0(i64 8, ptr %13) #10
  call void @llvm.lifetime.end.p0(i64 4, ptr %12) #10
  call void @llvm.lifetime.end.p0(i64 8, ptr %11) #10
  call void @llvm.lifetime.end.p0(i64 8, ptr %10) #10
  call void @llvm.lifetime.end.p0(i64 8, ptr %9) #10
  ret void
}