; Function Attrs: nofree norecurse nosync nounwind memory(argmem: readwrite) uwtable
define internal void @ff_tx_mdct_naive_fwd_float_c(ptr noundef readonly captures(none) %0, ptr noundef writeonly captures(none) %1, ptr noundef readonly captures(none) %2, i64 noundef %3) #13 {
  %5 = getelementptr inbounds nuw i8, ptr %0, i64 144
  %6 = load double, ptr %5, align 8, !tbaa !25
  %7 = load i32, ptr %0, align 8, !tbaa !16
  %8 = sitofp i32 %7 to double
  %9 = fmul nsz double %8, 4.000000e+00
  %10 = fdiv nsz double 0x400921FB54442D18, %9
  %11 = lshr i64 %3, 2
  %12 = icmp sgt i32 %7, 0
  br i1 %12, label %.preheader.us.preheader, label %._crit_edge30

.preheader.us.preheader:                          ; preds = %4
  %13 = shl nuw i32 %7, 1
  %14 = add nuw i32 %7, 1
  %wide.trip.count36 = zext nneg i32 %7 to i64
  %wide.trip.count = zext i32 %13 to i64
  br label %.preheader.us

.preheader.us:                                    ; preds = %.preheader.us.preheader, %._crit_edge.us
  %indvars.iv33 = phi i64 [ 0, %.preheader.us.preheader ], [ %indvars.iv.next34, %._crit_edge.us ]
  %indvars.iv33.tr = trunc i64 %indvars.iv33 to i32
  %15 = shl i32 %indvars.iv33.tr, 1
  %16 = or disjoint i32 %15, 1
  br label %17

17:                                               ; preds = %.preheader.us, %17
  %indvars.iv = phi i64 [ 0, %.preheader.us ], [ %indvars.iv.next, %17 ]
  %.02427.us = phi double [ 0.000000e+00, %.preheader.us ], [ %27, %17 ]
  %indvars.iv.tr = trunc i64 %indvars.iv to i32
  %18 = shl i32 %indvars.iv.tr, 1
  %19 = add i32 %14, %18
  %20 = mul nsw i32 %19, %16
  %21 = getelementptr inbounds nuw float, ptr %2, i64 %indvars.iv
  %22 = load float, ptr %21, align 4, !tbaa !27
  %23 = fpext nsz float %22 to double
  %24 = sitofp i32 %20 to double
  %25 = fmul nsz double %10, %24
  %26 = tail call nsz double @llvm.cos.f64(double %25)
  %27 = tail call nsz double @llvm.fmuladd.f64(double %23, double %26, double %.02427.us)
  %indvars.iv.next = add nuw nsw i64 %indvars.iv, 1
  %exitcond.not = icmp eq i64 %indvars.iv.next, %wide.trip.count
  br i1 %exitcond.not, label %._crit_edge.us, label %17, !llvm.loop !132

._crit_edge.us:                                   ; preds = %17
  %28 = fmul nsz double %6, %27
  %29 = fptrunc nsz double %28 to float
  %30 = mul nuw nsw i64 %11, %indvars.iv33
  %31 = getelementptr inbounds nuw float, ptr %1, i64 %30
  store float %29, ptr %31, align 4, !tbaa !27
  %indvars.iv.next34 = add nuw nsw i64 %indvars.iv33, 1
  %exitcond37.not = icmp eq i64 %indvars.iv.next34, %wide.trip.count36
  br i1 %exitcond37.not, label %._crit_edge30, label %.preheader.us, !llvm.loop !133

._crit_edge30:                                    ; preds = %._crit_edge.us, %4
  ret void
}